target datalayout = "e-m:e-p270:32:32-p271:32:32-p272:64:64-i64:64-i128:128-f80:128-n8:16:32:64-S128"
target triple = "x86_64-unknown-linux-gnu"

@.str.35 = private unnamed_addr constant [15 x i8] c"(){}[]*+?|.^$\\\00", align 1
@.str.36 = private unnamed_addr constant [2 x i8] c"-\00", align 1

; Function Attrs: mustprogress uwtable
define internal void @_ZN3re2L13AppendCCRangeEPNSt7__cxx1112basic_stringIcSt11char_traitsIcESaIcEEEii(ptr noundef %t, i32 noundef %lo, i32 noundef %hi) #0 {
entry:
  %t.addr = alloca ptr, align 8
  %lo.addr = alloca i32, align 4
  %hi.addr = alloca i32, align 4
  store ptr %t, ptr %t.addr, align 8
  store i32 %lo, ptr %lo.addr, align 4
  store i32 %hi, ptr %hi.addr, align 4
  %0 = load i32, ptr %lo.addr, align 4
  %1 = load i32, ptr %hi.addr, align 4
  %cmp = icmp sgt i32 %0, %1
  br i1 %cmp, label %if.then, label %if.end

if.then:                                          ; preds = %entry
  br label %if.end3

if.end:                                           ; preds = %entry
  %2 = load ptr, ptr %t.addr, align 8
  %3 = load i32, ptr %lo.addr, align 4
  call void @_ZN3re2L12AppendCCCharEPNSt7__cxx1112basic_stringIcSt11char_traitsIcESaIcEEEi(ptr noundef %2, i32 noundef %3)
  %4 = load i32, ptr %lo.addr, align 4
  %5 = load i32, ptr %hi.addr, align 4
  %cmp1 = icmp slt i32 %4, %5
  br i1 %cmp1, label %if.then2, label %if.end3

if.then2:                                         ; preds = %if.end
  %6 = load ptr, ptr %t.addr, align 8
  %call = call noundef nonnull align 8 dereferenceable(32) ptr @_ZNSt7__cxx1112basic_stringIcSt11char_traitsIcESaIcEE6appendEPKc(ptr noundef nonnull align 8 dereferenceable(32) %6, ptr noundef @.str.36)
  %7 = load ptr, ptr %t.addr, align 8
  %8 = load i32, ptr %hi.addr, align 4
  call void @_ZN3re2L12AppendCCCharEPNSt7__cxx1112basic_stringIcSt11char_traitsIcESaIcEEEi(ptr noundef %7, i32 noundef %8)
  br label %if.end3

if.end3:                                          ; preds = %if.then2, %if.end, %if.then
  ret void
}

; Function Attrs: mustprogress uwtable
define internal void @_ZN3re2L13AppendLiteralEPNSt7__cxx1112basic_stringIcSt11char_traitsIcESaIcEEEib(ptr noundef %t, i32 noundef %r, i1 noundef zeroext %foldcase) #0 {
entry:
  %t.addr = alloca ptr, align 8
  %r.addr = alloca i32, align 4
  %foldcase.addr = alloca i8, align 1
  store ptr %t, ptr %t.addr, align 8
  store i32 %r, ptr %r.addr, align 4
  %frombool = zext i1 %foldcase to i8
  store i8 %frombool, ptr %foldcase.addr, align 1
  %0 = load i32, ptr %r.addr, align 4
  %cmp = icmp ne i32 %0, 0
  br i1 %cmp, label %land.lhs.true, label %if.else

land.lhs.true:                                    ; preds = %entry
  %1 = load i32, ptr %r.addr, align 4
  %cmp1 = icmp slt i32 %1, 128
  br i1 %cmp1, label %land.lhs.true2, label %if.else

land.lhs.true2:                                   ; preds = %land.lhs.true
  %2 = load i32, ptr %r.addr, align 4
  %call = call noundef ptr @strchr(ptr noundef @.str.35, i32 noundef %2) #15
  %tobool = icmp ne ptr %call, null
  br i1 %tobool, label %if.then, label %if.else

if.then:                                          ; preds = %land.lhs.true2
  %3 = load ptr, ptr %t.addr, align 8
  %call3 = call noundef nonnull align 8 dereferenceable(32) ptr @_ZNSt7__cxx1112basic_stringIcSt11char_traitsIcESaIcEE6appendEmc(ptr noundef nonnull align 8 dereferenceable(32) %3, i64 noundef 1, i8 noundef signext 92)
  %4 = load ptr, ptr %t.addr, align 8
  %5 = load i32, ptr %r.addr, align 4
  %conv = trunc i32 %5 to i8
  %call4 = call noundef nonnull align 8 dereferenceable(32) ptr @_ZNSt7__cxx1112basic_stringIcSt11char_traitsIcESaIcEE6appendEmc(ptr noundef nonnull align 8 dereferenceable(32) %4, i64 noundef 1, i8 noundef signext %conv)
  br label %if.end21

if.else:                                          ; preds = %land.lhs.true2, %land.lhs.true, %entry
  %6 = load i8, ptr %foldcase.addr, align 1
  %tobool5 = trunc i8 %6 to i1
  br i1 %tobool5, label %land.lhs.true6, label %if.else20

land.lhs.true6:                                   ; preds = %if.else
  %7 = load i32, ptr %r.addr, align 4
  %cmp7 = icmp sle i32 97, %7
  br i1 %cmp7, label %land.lhs.true8, label %if.else20

land.lhs.true8:                                   ; preds = %land.lhs.true6
  %8 = load i32, ptr %r.addr, align 4
  %cmp9 = icmp sle i32 %8, 122
  br i1 %cmp9, label %if.then10, label %if.else20

if.then10:                                        ; preds = %land.lhs.true8
  %9 = load i32, ptr %r.addr, align 4
  %sub = sub nsw i32 %9, 32
  store i32 %sub, ptr %r.addr, align 4
  %10 = load ptr, ptr %t.addr, align 8
  %call11 = call noundef nonnull align 8 dereferenceable(32) ptr @_ZNSt7__cxx1112basic_stringIcSt11char_traitsIcESaIcEE6appendEmc(ptr noundef nonnull align 8 dereferenceable(32) %10, i64 noundef 1, i8 noundef signext 91)
  %11 = load ptr, ptr %t.addr, align 8
  %12 = load i32, ptr %r.addr, align 4
  %conv12 = trunc i32 %12 to i8
  %call13 = call noundef nonnull align 8 dereferenceable(32) ptr @_ZNSt7__cxx1112basic_stringIcSt11char_traitsIcESaIcEE6appendEmc(ptr noundef nonnull align 8 dereferenceable(32) %11, i64 noundef 1, i8 noundef signext %conv12)
  %13 = load ptr, ptr %t.addr, align 8
  %14 = load i32, ptr %r.addr, align 4
  %conv14 = trunc i32 %14 to i8
  %conv15 = sext i8 %conv14 to i32
  %add = add nsw i32 %conv15, 97
  %sub16 = sub nsw i32 %add, 65
  %conv17 = trunc i32 %sub16 to i8
  %call18 = call noundef nonnull align 8 dereferenceable(32) ptr @_ZNSt7__cxx1112basic_stringIcSt11char_traitsIcESaIcEE6appendEmc(ptr noundef nonnull align 8 dereferenceable(32) %13, i64 noundef 1, i8 noundef signext %conv17)
  %15 = load ptr, ptr %t.addr, align 8
  %call19 = call noundef nonnull align 8 dereferenceable(32) ptr @_ZNSt7__cxx1112basic_stringIcSt11char_traitsIcESaIcEE6appendEmc(ptr noundef nonnull align 8 dereferenceable(32) %15, i64 noundef 1, i8 noundef signext 93)
  br label %if.end

if.else20:                                        ; preds = %land.lhs.true8, %land.lhs.true6, %if.else
  %16 = load ptr, ptr %t.addr, align 8
  %17 = load i32, ptr %r.addr, align 4
  %18 = load i32, ptr %r.addr, align 4
  call void @_ZN3re2L13AppendCCRangeEPNSt7__cxx1112basic_stringIcSt11char_traitsIcESaIcEEEii(ptr noundef %16, i32 noundef %17, i32 noundef %18)
  br label %if.end

if.end:                                           ; preds = %if.else20, %if.then10
  br label %if.end21

if.end21:                                         ; preds = %if.end, %if.then
  ret void
}