; Function Attrs: mustprogress uwtable
define internal fastcc void @_ZN3re2L13AppendLiteralEPNSt7__cxx1112basic_stringIcSt11char_traitsIcESaIcEEEib(ptr noundef %t, i32 noundef %r, i1 noundef zeroext %foldcase) unnamed_addr #0 {
entry:
  %cmp = icmp ne i32 %r, 0
  %cmp1 = icmp slt i32 %r, 128
  %or.cond = and i1 %cmp, %cmp1
  br i1 %or.cond, label %land.lhs.true2, label %if.else

land.lhs.true2:                                   ; preds = %entry
  %memchr = tail call ptr @memchr(ptr noundef nonnull dereferenceable(1) @.str.35, i32 %r, i64 15)
  %tobool.not = icmp eq ptr %memchr, null
  br i1 %tobool.not, label %if.else, label %if.then

if.then:                                          ; preds = %land.lhs.true2
  %call3 = tail call noundef nonnull align 8 dereferenceable(32) ptr @_ZNSt7__cxx1112basic_stringIcSt11char_traitsIcESaIcEE6appendEmc(ptr noundef nonnull align 8 dereferenceable(32) %t, i64 noundef 1, i8 noundef signext 92)
  %conv = trunc i32 %r to i8
  %call4 = tail call noundef nonnull align 8 dereferenceable(32) ptr @_ZNSt7__cxx1112basic_stringIcSt11char_traitsIcESaIcEE6appendEmc(ptr noundef nonnull align 8 dereferenceable(32) %t, i64 noundef 1, i8 noundef signext %conv)
  br label %if.end21

if.else:                                          ; preds = %land.lhs.true2, %entry
  %0 = add i32 %r, -97
  %1 = icmp ult i32 %0, 26
  %or.cond2 = and i1 %1, %foldcase
  br i1 %or.cond2, label %if.then10, label %if.else20

if.then10:                                        ; preds = %if.else
  %call11 = tail call noundef nonnull align 8 dereferenceable(32) ptr @_ZNSt7__cxx1112basic_stringIcSt11char_traitsIcESaIcEE6appendEmc(ptr noundef nonnull align 8 dereferenceable(32) %t, i64 noundef 1, i8 noundef signext 91)
  %2 = trunc i32 %r to i8
  %conv12 = add nsw i8 %2, -32
  %call13 = tail call noundef nonnull align 8 dereferenceable(32) ptr @_ZNSt7__cxx1112basic_stringIcSt11char_traitsIcESaIcEE6appendEmc(ptr noundef nonnull align 8 dereferenceable(32) %t, i64 noundef 1, i8 noundef signext %conv12)
  %call18 = tail call noundef nonnull align 8 dereferenceable(32) ptr @_ZNSt7__cxx1112basic_stringIcSt11char_traitsIcESaIcEE6appendEmc(ptr noundef nonnull align 8 dereferenceable(32) %t, i64 noundef 1, i8 noundef signext %2)
  %call19 = tail call noundef nonnull align 8 dereferenceable(32) ptr @_ZNSt7__cxx1112basic_stringIcSt11char_traitsIcESaIcEE6appendEmc(ptr noundef nonnull align 8 dereferenceable(32) %t, i64 noundef 1, i8 noundef signext 93)
  br label %if.end21

if.else20:                                        ; preds = %if.else
  tail call fastcc void @_ZN3re2L12AppendCCCharEPNSt7__cxx1112basic_stringIcSt11char_traitsIcESaIcEEEi(ptr noundef %t, i32 noundef %r)
  br label %if.end21

if.end21:                                         ; preds = %if.then10, %if.else20, %if.then
  ret void
}